; Function Attrs: mustprogress uwtable
define void @_ZN4cvc56parser10PopCommand6invokeEPNS_6SolverEPNS0_10SymManagerE(ptr noundef nonnull align 8 captures(none) dereferenceable(20) %0, ptr noundef nonnull %1, ptr readnone captures(none) %2) unnamed_addr #3 align 2 personality ptr @__gxx_personality_v0 {
  %4 = alloca %"class.std::__cxx11::basic_string", align 8
  %5 = alloca %"class.std::allocator", align 1
  %6 = getelementptr inbounds nuw i8, ptr %0, i64 16
  %7 = load i32, ptr %6, align 8, !tbaa !104
  invoke void @_ZNK4cvc56Solver3popEj(ptr noundef nonnull align 8 dereferenceable(32) %1, i32 noundef %7)
          to label %8 unwind label %11

8:                                                ; preds = %3
  %9 = load ptr, ptr @_ZN4cvc56parser14CommandSuccess10s_instanceE, align 8, !tbaa !76
  %10 = getelementptr inbounds nuw i8, ptr %0, i64 8
  store ptr %9, ptr %10, align 8, !tbaa !48
  br label %36

11:                                               ; preds = %3
  %12 = landingpad { ptr, i32 }
          catch ptr @_ZTISt9exception
  %13 = extractvalue { ptr, i32 } %12, 1
  %14 = tail call i32 @llvm.eh.typeid.for.p0(ptr nonnull @_ZTISt9exception) #33
  %15 = icmp eq i32 %13, %14
  br i1 %15, label %16, label %52

16:                                               ; preds = %11
  %17 = extractvalue { ptr, i32 } %12, 0
  %18 = tail call ptr @__cxa_begin_catch(ptr %17) #33
  %19 = invoke noalias noundef nonnull dereferenceable(40) ptr @_Znwm(i64 noundef 40) #37
          to label %20 unwind label %37

20:                                               ; preds = %16
  call void @llvm.lifetime.start.p0(i64 32, ptr nonnull %4) #33
  %21 = load ptr, ptr %18, align 8, !tbaa !6
  %22 = getelementptr inbounds nuw i8, ptr %21, i64 16
  %23 = load ptr, ptr %22, align 8
  %24 = tail call noundef ptr %23(ptr noundef nonnull align 8 dereferenceable(8) %18) #33
  call void @llvm.lifetime.start.p0(i64 1, ptr nonnull %5) #33
  invoke void @_ZNSt7__cxx1112basic_stringIcSt11char_traitsIcESaIcEEC2IS3_EEPKcRKS3_(ptr noundef nonnull align 8 dereferenceable(32) %4, ptr noundef %24, ptr noundef nonnull align 1 dereferenceable(1) %5)
          to label %25 unwind label %39

25:                                               ; preds = %20
  invoke void @_ZN4cvc56parser14CommandFailureC2ERKNSt7__cxx1112basic_stringIcSt11char_traitsIcESaIcEEE(ptr noundef nonnull align 8 dereferenceable(40) %19, ptr noundef nonnull align 8 dereferenceable(32) %4)
          to label %26 unwind label %41

26:                                               ; preds = %25
  %27 = getelementptr inbounds nuw i8, ptr %0, i64 8
  store ptr %19, ptr %27, align 8, !tbaa !48
  %28 = load ptr, ptr %4, align 8, !tbaa !20
  %29 = getelementptr inbounds nuw i8, ptr %4, i64 16
  %30 = icmp eq ptr %28, %29
  br i1 %30, label %_ZNKSt7__cxx1112basic_stringIcSt11char_traitsIcESaIcEE11_M_is_localEv.exit.thread.i.i, label %_ZNKSt7__cxx1112basic_stringIcSt11char_traitsIcESaIcEE11_M_is_localEv.exit.i.i

_ZNKSt7__cxx1112basic_stringIcSt11char_traitsIcESaIcEE11_M_is_localEv.exit.thread.i.i: ; preds = %26
  %31 = getelementptr inbounds nuw i8, ptr %4, i64 8
  %32 = load i64, ptr %31, align 8, !tbaa !24
  %33 = icmp ult i64 %32, 16
  call void @llvm.assume(i1 %33)
  br label %_ZNSt7__cxx1112basic_stringIcSt11char_traitsIcESaIcEED2Ev.exit

_ZNKSt7__cxx1112basic_stringIcSt11char_traitsIcESaIcEE11_M_is_localEv.exit.i.i: ; preds = %26
  %34 = load i64, ptr %29, align 8, !tbaa !3
  %35 = add i64 %34, 1
  call void @_ZdlPvm(ptr noundef %28, i64 noundef %35) #34
  br label %_ZNSt7__cxx1112basic_stringIcSt11char_traitsIcESaIcEED2Ev.exit

_ZNSt7__cxx1112basic_stringIcSt11char_traitsIcESaIcEED2Ev.exit: ; preds = %_ZNKSt7__cxx1112basic_stringIcSt11char_traitsIcESaIcEE11_M_is_localEv.exit.thread.i.i, %_ZNKSt7__cxx1112basic_stringIcSt11char_traitsIcESaIcEE11_M_is_localEv.exit.i.i
  call void @llvm.lifetime.end.p0(i64 1, ptr nonnull %5) #33
  call void @llvm.lifetime.end.p0(i64 32, ptr nonnull %4) #33
  call void @__cxa_end_catch()
  br label %36

36:                                               ; preds = %_ZNSt7__cxx1112basic_stringIcSt11char_traitsIcESaIcEED2Ev.exit, %8
  ret void

37:                                               ; preds = %16
  %38 = landingpad { ptr, i32 }
          cleanup
  br label %51

39:                                               ; preds = %20
  %40 = landingpad { ptr, i32 }
          cleanup
  br label %_ZNSt7__cxx1112basic_stringIcSt11char_traitsIcESaIcEED2Ev.exit15

41:                                               ; preds = %25
  %42 = landingpad { ptr, i32 }
          cleanup
  %43 = load ptr, ptr %4, align 8, !tbaa !20
  %44 = getelementptr inbounds nuw i8, ptr %4, i64 16
  %45 = icmp eq ptr %43, %44
  br i1 %45, label %_ZNKSt7__cxx1112basic_stringIcSt11char_traitsIcESaIcEE11_M_is_localEv.exit.thread.i.i14, label %_ZNKSt7__cxx1112basic_stringIcSt11char_traitsIcESaIcEE11_M_is_localEv.exit.i.i13

_ZNKSt7__cxx1112basic_stringIcSt11char_traitsIcESaIcEE11_M_is_localEv.exit.thread.i.i14: ; preds = %41
  %46 = getelementptr inbounds nuw i8, ptr %4, i64 8
  %47 = load i64, ptr %46, align 8, !tbaa !24
  %48 = icmp ult i64 %47, 16
  call void @llvm.assume(i1 %48)
  br label %_ZNSt7__cxx1112basic_stringIcSt11char_traitsIcESaIcEED2Ev.exit15

_ZNKSt7__cxx1112basic_stringIcSt11char_traitsIcESaIcEE11_M_is_localEv.exit.i.i13: ; preds = %41
  %49 = load i64, ptr %44, align 8, !tbaa !3
  %50 = add i64 %49, 1
  call void @_ZdlPvm(ptr noundef %43, i64 noundef %50) #34
  br label %_ZNSt7__cxx1112basic_stringIcSt11char_traitsIcESaIcEED2Ev.exit15

_ZNSt7__cxx1112basic_stringIcSt11char_traitsIcESaIcEED2Ev.exit15: ; preds = %_ZNKSt7__cxx1112basic_stringIcSt11char_traitsIcESaIcEE11_M_is_localEv.exit.i.i13, %_ZNKSt7__cxx1112basic_stringIcSt11char_traitsIcESaIcEE11_M_is_localEv.exit.thread.i.i14, %39
  %.pn = phi { ptr, i32 } [ %40, %39 ], [ %42, %_ZNKSt7__cxx1112basic_stringIcSt11char_traitsIcESaIcEE11_M_is_localEv.exit.thread.i.i14 ], [ %42, %_ZNKSt7__cxx1112basic_stringIcSt11char_traitsIcESaIcEE11_M_is_localEv.exit.i.i13 ]
  call void @llvm.lifetime.end.p0(i64 1, ptr nonnull %5) #33
  call void @llvm.lifetime.end.p0(i64 32, ptr nonnull %4) #33
  call void @_ZdlPvm(ptr noundef nonnull %19, i64 noundef 40) #34
  br label %51

51:                                               ; preds = %_ZNSt7__cxx1112basic_stringIcSt11char_traitsIcESaIcEED2Ev.exit15, %37
  %.pn.pn = phi { ptr, i32 } [ %.pn, %_ZNSt7__cxx1112basic_stringIcSt11char_traitsIcESaIcEED2Ev.exit15 ], [ %38, %37 ]
  invoke void @__cxa_end_catch()
          to label %52 unwind label %53

52:                                               ; preds = %51, %11
  %.merged = phi { ptr, i32 } [ %12, %11 ], [ %.pn.pn, %51 ]
  resume { ptr, i32 } %.merged

53:                                               ; preds = %51
  %54 = landingpad { ptr, i32 }
          catch ptr null
  %55 = extractvalue { ptr, i32 } %54, 0
  call void @__clang_call_terminate(ptr %55) #35
  unreachable
}